target datalayout = "e-m:e-p270:32:32-p271:32:32-p272:64:64-i64:64-i128:128-f80:128-n8:16:32:64-S128"
target triple = "x86_64-pc-linux-gnu"

%struct.object_id = type { [32 x i8], i32 }
%struct.patch = type { ptr, ptr, ptr, i32, i32, i32, i32, i32, i32, i32, i32, i32, i32, i16, ptr, ptr, i64, [65 x i8], [65 x i8], ptr, [3 x %struct.object_id] }

; Function Attrs: nounwind uwtable
define internal i32 @gitdiff_dissimilarity(ptr noundef %0, ptr noundef %1, ptr noundef %2) #0 {
  %4 = alloca ptr, align 8
  %5 = alloca ptr, align 8
  %6 = alloca ptr, align 8
  %7 = alloca i64, align 8
  store ptr %0, ptr %4, align 8, !tbaa !97
  store ptr %1, ptr %5, align 8, !tbaa !11
  store ptr %2, ptr %6, align 8, !tbaa !60
  call void @llvm.lifetime.start.p0(i64 8, ptr %7) #12
  %8 = load ptr, ptr %5, align 8, !tbaa !11
  %9 = call i64 @strtoul(ptr noundef %8, ptr noundef null, i32 noundef 10) #12
  store i64 %9, ptr %7, align 8, !tbaa !87
  %10 = load i64, ptr %7, align 8, !tbaa !87
  %11 = icmp ule i64 %10, 100
  br i1 %11, label %12, label %17

12:                                               ; preds = %3
  %13 = load i64, ptr %7, align 8, !tbaa !87
  %14 = trunc i64 %13 to i32
  %15 = load ptr, ptr %6, align 8, !tbaa !60
  %16 = getelementptr inbounds nuw %struct.patch, ptr %15, i32 0, i32 11
  store i32 %14, ptr %16, align 8, !tbaa !99
  br label %17

17:                                               ; preds = %12, %3
  call void @llvm.lifetime.end.p0(i64 8, ptr %7) #12
  ret i32 0
}