; Function Attrs: mustprogress nofree nounwind willreturn uwtable
define internal noundef i32 @gitdiff_dissimilarity(ptr readnone captures(none) %0, ptr noundef readonly captures(none) %1, ptr noundef writeonly captures(none) %2) #7 {
  %4 = tail call i64 @strtoul(ptr noundef captures(none) %1, ptr noundef null, i32 noundef 10) #21
  %5 = icmp ult i64 %4, 101
  br i1 %5, label %6, label %9

6:                                                ; preds = %3
  %7 = trunc nuw nsw i64 %4 to i32
  %8 = getelementptr inbounds nuw i8, ptr %2, i64 56
  store i32 %7, ptr %8, align 8, !tbaa !86
  br label %9

9:                                                ; preds = %6, %3
  ret i32 0
}